; Function Attrs: mustprogress uwtable
define void @_ZNK5arrow9extension17JsonExtensionType11DeserializeESt10shared_ptrINS_8DataTypeEERKNSt7__cxx1112basic_stringIcSt11char_traitsIcESaIcEEE(ptr dead_on_unwind noalias writable sret(%"class.arrow::Result") align 8 %0, ptr nonnull readnone align 8 captures(none) %1, ptr noundef captures(none) %2, ptr nonnull readnone align 8 captures(none) %3) unnamed_addr #0 align 2 personality ptr @__gxx_personality_v0 {
  %5 = alloca %"class.std::shared_ptr", align 8
  %6 = load ptr, ptr %2, align 8, !tbaa !14
  store ptr %6, ptr %5, align 8, !tbaa !14
  %7 = getelementptr inbounds nuw i8, ptr %5, i64 8
  %8 = getelementptr inbounds nuw i8, ptr %2, i64 8
  %9 = load ptr, ptr %8, align 8, !tbaa !20
  store ptr null, ptr %8, align 8, !tbaa !20
  store ptr %9, ptr %7, align 8, !tbaa !20
  store ptr null, ptr %2, align 8, !tbaa !14
  invoke void @_ZN5arrow9extension17JsonExtensionType4MakeESt10shared_ptrINS_8DataTypeEE(ptr dead_on_unwind writable sret(%"class.arrow::Result") align 8 %0, ptr noundef nonnull %5)
          to label %10 unwind label %33

10:                                               ; preds = %4
  %11 = load ptr, ptr %7, align 8, !tbaa !20
  %.not.i.i = icmp eq ptr %11, null
  br i1 %.not.i.i, label %_ZNSt12__shared_ptrIN5arrow8DataTypeELN9__gnu_cxx12_Lock_policyE2EED2Ev.exit, label %12

12:                                               ; preds = %10
  %13 = getelementptr inbounds nuw i8, ptr %11, i64 8
  %14 = load atomic i64, ptr %13 acquire, align 8
  %15 = icmp eq i64 %14, 4294967297
  %16 = trunc i64 %14 to i32
  br i1 %15, label %17, label %25

17:                                               ; preds = %12
  store i32 0, ptr %13, align 8, !tbaa !21
  %18 = getelementptr inbounds nuw i8, ptr %11, i64 12
  store i32 0, ptr %18, align 4, !tbaa !24
  %19 = load ptr, ptr %11, align 8, !tbaa !3
  %20 = getelementptr inbounds nuw i8, ptr %19, i64 16
  %21 = load ptr, ptr %20, align 8
  call void %21(ptr noundef nonnull align 8 dereferenceable(16) %11) #21
  %22 = load ptr, ptr %11, align 8, !tbaa !3
  %23 = getelementptr inbounds nuw i8, ptr %22, i64 24
  %24 = load ptr, ptr %23, align 8
  call void %24(ptr noundef nonnull align 8 dereferenceable(16) %11) #21
  br label %_ZNSt12__shared_ptrIN5arrow8DataTypeELN9__gnu_cxx12_Lock_policyE2EED2Ev.exit

25:                                               ; preds = %12
  %26 = load i8, ptr @__libc_single_threaded, align 1, !tbaa !19
  %.not.i.i.i = icmp eq i8 %26, 0
  br i1 %.not.i.i.i, label %29, label %27

27:                                               ; preds = %25
  %28 = add nsw i32 %16, -1
  store i32 %28, ptr %13, align 4, !tbaa !25
  br label %_ZN9__gnu_cxx27__exchange_and_add_dispatchEPii.exit.i.i.i

29:                                               ; preds = %25
  %30 = atomicrmw volatile add ptr %13, i32 -1 acq_rel, align 4
  br label %_ZN9__gnu_cxx27__exchange_and_add_dispatchEPii.exit.i.i.i

_ZN9__gnu_cxx27__exchange_and_add_dispatchEPii.exit.i.i.i: ; preds = %29, %27
  %.0.i.i.i.i = phi i32 [ %16, %27 ], [ %30, %29 ]
  %31 = icmp eq i32 %.0.i.i.i.i, 1
  br i1 %31, label %32, label %_ZNSt12__shared_ptrIN5arrow8DataTypeELN9__gnu_cxx12_Lock_policyE2EED2Ev.exit, !prof !26

32:                                               ; preds = %_ZN9__gnu_cxx27__exchange_and_add_dispatchEPii.exit.i.i.i
  call void @_ZNSt16_Sp_counted_baseILN9__gnu_cxx12_Lock_policyE2EE24_M_release_last_use_coldEv(ptr noundef nonnull align 8 dereferenceable(16) %11) #21
  br label %_ZNSt12__shared_ptrIN5arrow8DataTypeELN9__gnu_cxx12_Lock_policyE2EED2Ev.exit

_ZNSt12__shared_ptrIN5arrow8DataTypeELN9__gnu_cxx12_Lock_policyE2EED2Ev.exit: ; preds = %10, %17, %_ZN9__gnu_cxx27__exchange_and_add_dispatchEPii.exit.i.i.i, %32
  ret void

33:                                               ; preds = %4
  %34 = landingpad { ptr, i32 }
          cleanup
  call void @_ZNSt12__shared_ptrIN5arrow8DataTypeELN9__gnu_cxx12_Lock_policyE2EED2Ev(ptr noundef nonnull align 8 dereferenceable(16) %5) #21
  resume { ptr, i32 } %34
}